libKInfoCenterInternal.so:_Z43qInitResources_qmlcache_KInfoCenterInternalv
libKInfoCenterInternal.so:_Z44qInitResources_KInfoCenterInternal_raw_qml_0v
libKInfoCenterInternal.so:_Z46qCleanupResources_qmlcache_KInfoCenterInternalv
libKInfoCenterInternal.so:_Z46qml_register_types_org_kde_kinfocenter_privatev
libKInfoCenterInternal.so:_Z47qCleanupResources_KInfoCenterInternal_raw_qml_0v
libKInfoCenterInternal.so:_Z48qInitResources_qmake_org_kde_kinfocenter_privatev
libKInfoCenterInternal.so:_Z51qCleanupResources_qmake_org_kde_kinfocenter_privatev
libKInfoCenterInternal.so:_ZN20CommandOutputContext10runProcessEv
libKInfoCenterInternal.so:_ZN20CommandOutputContext11qt_metacallEN11QMetaObject4CallEiPPv
libKInfoCenterInternal.so:_ZN20CommandOutputContext11qt_metacastEPKc
libKInfoCenterInternal.so:_ZN20CommandOutputContext11textChangedEv
libKInfoCenterInternal.so:_ZN20CommandOutputContext12errorChangedEv
libKInfoCenterInternal.so:_ZN20CommandOutputContext12readyChangedEv
libKInfoCenterInternal.so:_ZN20CommandOutputContext13filterChangedEv
libKInfoCenterInternal.so:_ZN20CommandOutputContext14setAutoRefreshEb
libKInfoCenterInternal.so:_ZN20CommandOutputContext14setTrimAllowedEb
libKInfoCenterInternal.so:_ZN20CommandOutputContext16setAutoRefreshMsEi
libKInfoCenterInternal.so:_ZN20CommandOutputContext18autoRefreshChangedEv
libKInfoCenterInternal.so:_ZN20CommandOutputContext18explanationChangedEv
libKInfoCenterInternal.so:_ZN20CommandOutputContext20autoRefreshMsChangedEv
libKInfoCenterInternal.so:_ZN20CommandOutputContext4loadEv
libKInfoCenterInternal.so:_ZN20CommandOutputContext5resetEv
libKInfoCenterInternal.so:_ZN20CommandOutputContext7refreshEv
libKInfoCenterInternal.so:_ZN20CommandOutputContext8setErrorERK7QStringS2_
libKInfoCenterInternal.so:_ZN20CommandOutputContext8setReadyEv
libKInfoCenterInternal.so:_ZN20CommandOutputContext9setFilterERK7QString
libKInfoCenterInternal.so:_ZN20CommandOutputContextC1ERK5QListI7QStringERKS1_S4_N2Qt10TextFormatEP7QObject
libKInfoCenterInternal.so:_ZN20CommandOutputContextC1ERK5QListI7QStringERKS1_S4_P7QObject
libKInfoCenterInternal.so:_ZN20CommandOutputContextC1ERK7QStringRK5QListIS0_EP7QObject
libKInfoCenterInternal.so:_ZN20CommandOutputContextC2ERK5QListI7QStringERKS1_S4_N2Qt10TextFormatEP7QObject
libKInfoCenterInternal.so:_ZN20CommandOutputContextC2ERK5QListI7QStringERKS1_S4_P7QObject
libKInfoCenterInternal.so:_ZN20CommandOutputContextC2ERK7QStringRK5QListIS0_EP7QObject
libKInfoCenterInternal.so:_ZN21QmlCacheGeneratedCode60_qt_qml_org_kde_kinfocenter_private_qml_CommandOutputKCM_qml17aotBuiltFunctionsMUlPKN11QQmlPrivate18AOTCompiledContextEPPvE0_4_FUNES5_S7_
libKInfoCenterInternal.so:_ZN21QmlCacheGeneratedCode60_qt_qml_org_kde_kinfocenter_private_qml_CommandOutputKCM_qml17aotBuiltFunctionsMUlPKN11QQmlPrivate18AOTCompiledContextEPPvE10_4_FUNES5_S7_
libKInfoCenterInternal.so:_ZN21QmlCacheGeneratedCode60_qt_qml_org_kde_kinfocenter_private_qml_CommandOutputKCM_qml17aotBuiltFunctionsMUlPKN11QQmlPrivate18AOTCompiledContextEPPvE11_4_FUNES5_S7_
libKInfoCenterInternal.so:_ZN21QmlCacheGeneratedCode60_qt_qml_org_kde_kinfocenter_private_qml_CommandOutputKCM_qml17aotBuiltFunctionsMUlPKN11QQmlPrivate18AOTCompiledContextEPPvE1_4_FUNES5_S7_
libKInfoCenterInternal.so:_ZN21QmlCacheGeneratedCode60_qt_qml_org_kde_kinfocenter_private_qml_CommandOutputKCM_qml17aotBuiltFunctionsMUlPKN11QQmlPrivate18AOTCompiledContextEPPvE2_4_FUNES5_S7_
libKInfoCenterInternal.so:_ZN21QmlCacheGeneratedCode60_qt_qml_org_kde_kinfocenter_private_qml_CommandOutputKCM_qml17aotBuiltFunctionsMUlPKN11QQmlPrivate18AOTCompiledContextEPPvE3_4_FUNES5_S7_
libKInfoCenterInternal.so:_ZN21QmlCacheGeneratedCode60_qt_qml_org_kde_kinfocenter_private_qml_CommandOutputKCM_qml17aotBuiltFunctionsMUlPKN11QQmlPrivate18AOTCompiledContextEPPvE4_4_FUNES5_S7_
libKInfoCenterInternal.so:_ZN21QmlCacheGeneratedCode60_qt_qml_org_kde_kinfocenter_private_qml_CommandOutputKCM_qml17aotBuiltFunctionsMUlPKN11QQmlPrivate18AOTCompiledContextEPPvE5_4_FUNES5_S7_
libKInfoCenterInternal.so:_ZN21QmlCacheGeneratedCode60_qt_qml_org_kde_kinfocenter_private_qml_CommandOutputKCM_qml17aotBuiltFunctionsMUlPKN11QQmlPrivate18AOTCompiledContextEPPvE6_4_FUNES5_S7_
libKInfoCenterInternal.so:_ZN21QmlCacheGeneratedCode60_qt_qml_org_kde_kinfocenter_private_qml_CommandOutputKCM_qml17aotBuiltFunctionsMUlPKN11QQmlPrivate18AOTCompiledContextEPPvE7_4_FUNES5_S7_
libKInfoCenterInternal.so:_ZN21QmlCacheGeneratedCode60_qt_qml_org_kde_kinfocenter_private_qml_CommandOutputKCM_qml17aotBuiltFunctionsMUlPKN11QQmlPrivate18AOTCompiledContextEPPvE8_4_FUNES5_S7_
libKInfoCenterInternal.so:_ZN21QmlCacheGeneratedCode60_qt_qml_org_kde_kinfocenter_private_qml_CommandOutputKCM_qml17aotBuiltFunctionsMUlPKN11QQmlPrivate18AOTCompiledContextEPPvE9_4_FUNES5_S7_
libKInfoCenterInternal.so:_ZN21QmlCacheGeneratedCode60_qt_qml_org_kde_kinfocenter_private_qml_CommandOutputKCM_qml17aotBuiltFunctionsMUlPKN11QQmlPrivate18AOTCompiledContextEPPvE_4_FUNES5_S7_
libKInfoCenterInternal.so:_ZN21QmlCacheGeneratedCode60_qt_qml_org_kde_kinfocenter_private_qml_CommandOutputKCM_qml17aotBuiltFunctionsMUlPN3QV425ExecutableCompilationUnitEP9QMetaTypeE0_4_FUNES4_S6_
libKInfoCenterInternal.so:_ZN21QmlCacheGeneratedCode60_qt_qml_org_kde_kinfocenter_private_qml_CommandOutputKCM_qml17aotBuiltFunctionsMUlPN3QV425ExecutableCompilationUnitEP9QMetaTypeE10_4_FUNES4_S6_
libKInfoCenterInternal.so:_ZN21QmlCacheGeneratedCode60_qt_qml_org_kde_kinfocenter_private_qml_CommandOutputKCM_qml17aotBuiltFunctionsMUlPN3QV425ExecutableCompilationUnitEP9QMetaTypeE11_4_FUNES4_S6_
libKInfoCenterInternal.so:_ZN21QmlCacheGeneratedCode60_qt_qml_org_kde_kinfocenter_private_qml_CommandOutputKCM_qml17aotBuiltFunctionsMUlPN3QV425ExecutableCompilationUnitEP9QMetaTypeE1_4_FUNES4_S6_
libKInfoCenterInternal.so:_ZN21QmlCacheGeneratedCode60_qt_qml_org_kde_kinfocenter_private_qml_CommandOutputKCM_qml17aotBuiltFunctionsMUlPN3QV425ExecutableCompilationUnitEP9QMetaTypeE2_4_FUNES4_S6_
libKInfoCenterInternal.so:_ZN21QmlCacheGeneratedCode60_qt_qml_org_kde_kinfocenter_private_qml_CommandOutputKCM_qml17aotBuiltFunctionsMUlPN3QV425ExecutableCompilationUnitEP9QMetaTypeE3_4_FUNES4_S6_
libKInfoCenterInternal.so:_ZN21QmlCacheGeneratedCode60_qt_qml_org_kde_kinfocenter_private_qml_CommandOutputKCM_qml17aotBuiltFunctionsMUlPN3QV425ExecutableCompilationUnitEP9QMetaTypeE4_4_FUNES4_S6_
libKInfoCenterInternal.so:_ZN21QmlCacheGeneratedCode60_qt_qml_org_kde_kinfocenter_private_qml_CommandOutputKCM_qml17aotBuiltFunctionsMUlPN3QV425ExecutableCompilationUnitEP9QMetaTypeE5_4_FUNES4_S6_
libKInfoCenterInternal.so:_ZN21QmlCacheGeneratedCode60_qt_qml_org_kde_kinfocenter_private_qml_CommandOutputKCM_qml17aotBuiltFunctionsMUlPN3QV425ExecutableCompilationUnitEP9QMetaTypeE6_4_FUNES4_S6_
libKInfoCenterInternal.so:_ZN21QmlCacheGeneratedCode60_qt_qml_org_kde_kinfocenter_private_qml_CommandOutputKCM_qml17aotBuiltFunctionsMUlPN3QV425ExecutableCompilationUnitEP9QMetaTypeE7_4_FUNES4_S6_
libKInfoCenterInternal.so:_ZN21QmlCacheGeneratedCode60_qt_qml_org_kde_kinfocenter_private_qml_CommandOutputKCM_qml17aotBuiltFunctionsMUlPN3QV425ExecutableCompilationUnitEP9QMetaTypeE8_4_FUNES4_S6_
libKInfoCenterInternal.so:_ZN21QmlCacheGeneratedCode60_qt_qml_org_kde_kinfocenter_private_qml_CommandOutputKCM_qml17aotBuiltFunctionsMUlPN3QV425ExecutableCompilationUnitEP9QMetaTypeE9_4_FUNES4_S6_
libKInfoCenterInternal.so:_ZN21QmlCacheGeneratedCode60_qt_qml_org_kde_kinfocenter_private_qml_CommandOutputKCM_qml17aotBuiltFunctionsMUlPN3QV425ExecutableCompilationUnitEP9QMetaTypeE_4_FUNES4_S6_
libKInfoCenterInternal.so:_ZN9QtPrivate17MetaObjectForTypeI20CommandOutputContextvE18metaObjectFunctionEPKNS_18QMetaTypeInterfaceE
libKInfoCenterInternal.so:_ZN9QtPrivate17MetaObjectForTypeIN2Qt10TextFormatEvE18metaObjectFunctionEPKNS_18QMetaTypeInterfaceE
libKInfoCenterInternal.so:_ZN9QtPrivate24QEqualityOperatorForTypeIN2Qt10TextFormatELb1EE6equalsEPKNS_18QMetaTypeInterfaceEPKvS8_
libKInfoCenterInternal.so:_ZN9QtPrivate24QLessThanOperatorForTypeIN2Qt10TextFormatELb1EE8lessThanEPKNS_18QMetaTypeInterfaceEPKvS8_
libKInfoCenterInternal.so:_ZN9QtPrivate26QDataStreamOperatorForTypeIN2Qt10TextFormatELb1EE12dataStreamInEPKNS_18QMetaTypeInterfaceER11QDataStreamPv
libKInfoCenterInternal.so:_ZN9QtPrivate26QDataStreamOperatorForTypeIN2Qt10TextFormatELb1EE13dataStreamOutEPKNS_18QMetaTypeInterfaceER11QDataStreamPKv
libKInfoCenterInternal.so:_ZN9QtPrivate27QDebugStreamOperatorForTypeIN2Qt10TextFormatELb1EE11debugStreamEPKNS_18QMetaTypeInterfaceER6QDebugPKv
libKInfoCenterInternal.so:_ZNK20CommandOutputContext10metaObjectEv
libKInfoCenterInternal.so:_ZNK20CommandOutputContext11autoRefreshEv
libKInfoCenterInternal.so:_ZNK20CommandOutputContext14executableNameEv
libKInfoCenterInternal.so:_ZNK20CommandOutputContext6filterEv
libKInfoCenterInternal.so:_ZNK20CommandOutputContext9argumentsEv
libKInfoCenterInternal.so:_ZZN9QtPrivate16QMetaTypeForTypeI20CommandOutputContextE7getDtorEvENUlPKNS_18QMetaTypeInterfaceEPvE_4_FUNES5_S6_
libKInfoCenterInternal.so:_ZZN9QtPrivate16QMetaTypeForTypeIN2Qt10TextFormatEE17getLegacyRegisterEvENUlvE_4_FUNEv
